target datalayout = "e-m:e-p270:32:32-p271:32:32-p272:64:64-i64:64-i128:128-f80:128-n8:16:32:64-S128"
target triple = "x86_64-pc-linux-gnu"

%struct.jit_State = type { %struct.GCtrace, ptr, ptr, ptr, ptr, ptr, ptr, i32, i32, i32, i8, i8, %struct.IRType1, i8, %struct.FoldState, ptr, i32, i32, i32, i32, i32, i32, i32, [1 x i32], [5 x %union.TValue], [3 x %union.TValue], ptr, i32, i32, i32, i32, ptr, ptr, i32, i32, i8, ptr, i32, i32, i16, [101 x i16], [258 x i32], [15 x i32], [16 x ptr], [64 x %struct.HotPenalty], i32, [16 x %struct.BPropEntry], i32, %struct.ScEvEntry, ptr, i32, i32, i32, ptr, i32, i32, ptr, ptr, ptr, i64, i64, %union.TValue, ptr, i32, i32 }
%struct.GCtrace = type { %struct.GCRef, i8, i8, i16, i32, i32, %struct.GCRef, ptr, i32, i32, ptr, ptr, %struct.GCRef, %struct.MRef, i32, i32, ptr, i32, i16, i16, i16, i16, i16, i16, i16, i8, i8, i8, i8 }
%struct.GCRef = type { i64 }
%struct.MRef = type { i64 }
%struct.IRType1 = type { i8 }
%struct.FoldState = type { %union.IRIns, [2 x %union.IRIns], [2 x %union.IRIns] }
%union.IRIns = type { %struct.GCRef }
%struct.HotPenalty = type { %struct.MRef, i16, i16 }
%struct.BPropEntry = type { i16, i16, i32 }
%struct.ScEvEntry = type { %struct.MRef, i16, i16, i16, i16, %struct.IRType1, i8 }
%union.TValue = type { i64 }
%struct.lua_State = type { %struct.GCRef, i8, i8, i8, i8, %struct.MRef, %struct.GCRef, ptr, ptr, %struct.MRef, %struct.MRef, %struct.GCRef, %struct.GCRef, ptr, i32 }
%struct.global_State = type { ptr, ptr, %struct.GCState, %struct.GCstr, i8, i8, i8, i8, %struct.StrInternState, i32, %struct.GCRef, %struct.SBuf, %union.TValue, %union.TValue, %struct.Node, %union.TValue, %struct.GCupval, i32, i32, ptr, ptr, ptr, i32, i32, %struct.GCRef, %struct.MRef, %struct.MRef, %struct.PRNGState, [39 x %struct.GCRef] }
%struct.GCState = type { i64, i64, i8, i8, i8, i8, i32, %struct.GCRef, %struct.MRef, %struct.GCRef, %struct.GCRef, %struct.GCRef, %struct.GCRef, i64, i64, i32, i32, %struct.MRef }
%struct.GCstr = type { %struct.GCRef, i8, i8, i8, i8, i32, i32, i32 }
%struct.StrInternState = type { ptr, i32, i32, i32, i8, i8, i8, i8, i64 }
%struct.SBuf = type { ptr, ptr, ptr, %struct.MRef }
%struct.Node = type { %union.TValue, %union.TValue, %struct.MRef }
%struct.GCupval = type { %struct.GCRef, i8, i8, i8, i8, %union.anon, %struct.MRef, i32 }
%union.anon = type { %struct.anon.3 }
%struct.anon.3 = type { %struct.GCRef, %struct.GCRef }
%struct.PRNGState = type { [4 x i64] }
%struct.GCcdata = type { %struct.GCRef, i8, i8, i16 }
%struct.anon = type { i16, i16, i16, i16 }
%struct.CTState = type { ptr, i32, i32, ptr, ptr, ptr, %struct.CCallback, [128 x i16] }
%struct.CCallback = type { [8 x %union.FPRCBArg], [8 x i64], ptr, ptr, ptr, i32, i32, i32 }
%union.FPRCBArg = type { double }
%struct.CPState = type { i32, i32, %struct.CPValue, ptr, ptr, ptr, %struct.SBuf, ptr, ptr, ptr, ptr, i32, i32, i32, i32, [7 x i8], i8 }
%struct.CPValue = type { %union.anon.4, i32 }
%union.anon.4 = type { i32 }

; Function Attrs: nounwind uwtable
define internal i32 @crec_constructor(ptr noundef %0, ptr noundef %1, i32 noundef %2) #0 {
  %4 = alloca ptr, align 8
  %5 = alloca ptr, align 8
  %6 = alloca i32, align 4
  %7 = alloca i32, align 4
  store ptr %0, ptr %4, align 8, !tbaa !4
  store ptr %1, ptr %5, align 8, !tbaa !36
  store i32 %2, ptr %6, align 4, !tbaa !31
  call void @llvm.lifetime.start.p0(i64 4, ptr %7) #7
  %8 = load ptr, ptr %5, align 8, !tbaa !36
  %9 = getelementptr inbounds %struct.GCcdata, ptr %8, i64 1
  %10 = load i32, ptr %9, align 4, !tbaa !31
  store i32 %10, ptr %7, align 4, !tbaa !31
  %11 = load ptr, ptr %4, align 8, !tbaa !4
  %12 = load i32, ptr %6, align 4, !tbaa !31
  %13 = trunc i32 %12 to i16
  call void @lj_ir_set_(ptr noundef %11, i16 noundef zeroext 17683, i16 noundef zeroext %13, i16 noundef zeroext 22)
  %14 = load ptr, ptr %4, align 8, !tbaa !4
  %15 = call i32 @lj_opt_fold(ptr noundef %14)
  store i32 %15, ptr %6, align 4, !tbaa !31
  %16 = load ptr, ptr %4, align 8, !tbaa !4
  %17 = load i32, ptr %6, align 4, !tbaa !31
  %18 = trunc i32 %17 to i16
  %19 = load ptr, ptr %4, align 8, !tbaa !4
  %20 = load i32, ptr %7, align 4, !tbaa !31
  %21 = call i32 @lj_ir_kint(ptr noundef %19, i32 noundef %20)
  %22 = trunc i32 %21 to i16
  call void @lj_ir_set_(ptr noundef %16, i16 noundef zeroext 2195, i16 noundef zeroext %18, i16 noundef zeroext %22)
  %23 = load ptr, ptr %4, align 8, !tbaa !4
  %24 = call i32 @lj_opt_fold(ptr noundef %23)
  %25 = load i32, ptr %7, align 4, !tbaa !31
  call void @llvm.lifetime.end.p0(i64 4, ptr %7) #7
  ret i32 %25
}

; Function Attrs: nounwind uwtable
define internal ptr @argv2cdata(ptr noundef %0, i32 noundef %1, ptr noundef %2) #0 {
  %4 = alloca ptr, align 8
  %5 = alloca i32, align 4
  %6 = alloca ptr, align 8
  %7 = alloca ptr, align 8
  %8 = alloca i32, align 4
  store ptr %0, ptr %4, align 8, !tbaa !4
  store i32 %1, ptr %5, align 4, !tbaa !31
  store ptr %2, ptr %6, align 8, !tbaa !67
  call void @llvm.lifetime.start.p0(i64 8, ptr %7) #7
  call void @llvm.lifetime.start.p0(i64 4, ptr %8) #7
  %9 = load i32, ptr %5, align 4, !tbaa !31
  %10 = and i32 %9, 520093696
  %11 = icmp eq i32 %10, 167772160
  br i1 %11, label %14, label %12

12:                                               ; preds = %3
  %13 = load ptr, ptr %4, align 8, !tbaa !4
  call void @lj_trace_err(ptr noundef %13, i32 noundef 11) #8
  unreachable

14:                                               ; preds = %3
  %15 = load ptr, ptr %6, align 8, !tbaa !67
  %16 = getelementptr inbounds nuw %struct.GCRef, ptr %15, i32 0, i32 0
  %17 = load i64, ptr %16, align 8, !tbaa !58
  %18 = and i64 %17, 140737488355327
  %19 = inttoptr i64 %18 to ptr
  store ptr %19, ptr %7, align 8, !tbaa !36
  %20 = load ptr, ptr %4, align 8, !tbaa !4
  %21 = load i32, ptr %5, align 4, !tbaa !31
  %22 = trunc i32 %21 to i16
  call void @lj_ir_set_(ptr noundef %20, i16 noundef zeroext 17682, i16 noundef zeroext %22, i16 noundef zeroext 20)
  %23 = load ptr, ptr %4, align 8, !tbaa !4
  %24 = call i32 @lj_opt_fold(ptr noundef %23)
  store i32 %24, ptr %8, align 4, !tbaa !31
  %25 = load ptr, ptr %4, align 8, !tbaa !4
  %26 = load i32, ptr %8, align 4, !tbaa !31
  %27 = trunc i32 %26 to i16
  %28 = load ptr, ptr %4, align 8, !tbaa !4
  %29 = load ptr, ptr %7, align 8, !tbaa !36
  %30 = getelementptr inbounds nuw %struct.GCcdata, ptr %29, i32 0, i32 3
  %31 = load i16, ptr %30, align 2, !tbaa !51
  %32 = zext i16 %31 to i32
  %33 = call i32 @lj_ir_kint(ptr noundef %28, i32 noundef %32)
  %34 = trunc i32 %33 to i16
  call void @lj_ir_set_(ptr noundef %25, i16 noundef zeroext 2195, i16 noundef zeroext %27, i16 noundef zeroext %34)
  %35 = load ptr, ptr %4, align 8, !tbaa !4
  %36 = call i32 @lj_opt_fold(ptr noundef %35)
  %37 = load ptr, ptr %7, align 8, !tbaa !36
  call void @llvm.lifetime.end.p0(i64 4, ptr %8) #7
  call void @llvm.lifetime.end.p0(i64 8, ptr %7) #7
  ret ptr %37
}

; Function Attrs: alwaysinline nounwind uwtable
define internal ptr @ctype_cts(ptr noundef %0) #2 {
  %2 = alloca ptr, align 8
  %3 = alloca ptr, align 8
  store ptr %0, ptr %2, align 8, !tbaa !102
  call void @llvm.lifetime.start.p0(i64 8, ptr %3) #7
  %4 = load ptr, ptr %2, align 8, !tbaa !102
  %5 = getelementptr inbounds nuw %struct.lua_State, ptr %4, i32 0, i32 5
  %6 = getelementptr inbounds nuw %struct.MRef, ptr %5, i32 0, i32 0
  %7 = load i64, ptr %6, align 8, !tbaa !103
  %8 = inttoptr i64 %7 to ptr
  %9 = getelementptr inbounds nuw %struct.global_State, ptr %8, i32 0, i32 26
  %10 = getelementptr inbounds nuw %struct.MRef, ptr %9, i32 0, i32 0
  %11 = load i64, ptr %10, align 8, !tbaa !104
  %12 = inttoptr i64 %11 to ptr
  store ptr %12, ptr %3, align 8, !tbaa !49
  %13 = load ptr, ptr %2, align 8, !tbaa !102
  %14 = load ptr, ptr %3, align 8, !tbaa !49
  %15 = getelementptr inbounds nuw %struct.CTState, ptr %14, i32 0, i32 3
  store ptr %13, ptr %15, align 8, !tbaa !86
  %16 = load ptr, ptr %3, align 8, !tbaa !49
  call void @llvm.lifetime.end.p0(i64 8, ptr %3) #7
  ret ptr %16
}

; Function Attrs: alwaysinline nounwind uwtable
define internal void @lj_ir_set_(ptr noundef %0, i16 noundef zeroext %1, i16 noundef zeroext %2, i16 noundef zeroext %3) #2 {
  %5 = alloca ptr, align 8
  %6 = alloca i16, align 2
  %7 = alloca i16, align 2
  %8 = alloca i16, align 2
  store ptr %0, ptr %5, align 8, !tbaa !4
  store i16 %1, ptr %6, align 2, !tbaa !70
  store i16 %2, ptr %7, align 2, !tbaa !70
  store i16 %3, ptr %8, align 2, !tbaa !70
  %9 = load i16, ptr %6, align 2, !tbaa !70
  %10 = load ptr, ptr %5, align 8, !tbaa !4
  %11 = getelementptr inbounds nuw %struct.jit_State, ptr %10, i32 0, i32 14
  %12 = getelementptr inbounds nuw %struct.FoldState, ptr %11, i32 0, i32 0
  %13 = getelementptr inbounds nuw %struct.anon, ptr %12, i32 0, i32 2
  store i16 %9, ptr %13, align 4, !tbaa !58
  %14 = load i16, ptr %7, align 2, !tbaa !70
  %15 = load ptr, ptr %5, align 8, !tbaa !4
  %16 = getelementptr inbounds nuw %struct.jit_State, ptr %15, i32 0, i32 14
  %17 = getelementptr inbounds nuw %struct.FoldState, ptr %16, i32 0, i32 0
  %18 = getelementptr inbounds nuw %struct.anon, ptr %17, i32 0, i32 0
  store i16 %14, ptr %18, align 8, !tbaa !58
  %19 = load i16, ptr %8, align 2, !tbaa !70
  %20 = load ptr, ptr %5, align 8, !tbaa !4
  %21 = getelementptr inbounds nuw %struct.jit_State, ptr %20, i32 0, i32 14
  %22 = getelementptr inbounds nuw %struct.FoldState, ptr %21, i32 0, i32 0
  %23 = getelementptr inbounds nuw %struct.anon, ptr %22, i32 0, i32 1
  store i16 %19, ptr %23, align 2, !tbaa !58
  ret void
}

; Function Attrs: nounwind uwtable
define internal i32 @argv2ctype(ptr noundef %0, i32 noundef %1, ptr noundef %2) #0 {
  %4 = alloca i32, align 4
  %5 = alloca ptr, align 8
  %6 = alloca i32, align 4
  %7 = alloca ptr, align 8
  %8 = alloca ptr, align 8
  %9 = alloca %struct.CPState, align 8
  %10 = alloca i32, align 4
  %11 = alloca ptr, align 8
  store ptr %0, ptr %5, align 8, !tbaa !4
  store i32 %1, ptr %6, align 4, !tbaa !31
  store ptr %2, ptr %7, align 8, !tbaa !67
  %12 = load i32, ptr %6, align 4, !tbaa !31
  %13 = and i32 %12, 520093696
  %14 = icmp eq i32 %13, 67108864
  br i1 %14, label %15, label %66

15:                                               ; preds = %3
  call void @llvm.lifetime.start.p0(i64 8, ptr %8) #7
  %16 = load ptr, ptr %7, align 8, !tbaa !67
  %17 = getelementptr inbounds nuw %struct.GCRef, ptr %16, i32 0, i32 0
  %18 = load i64, ptr %17, align 8, !tbaa !58
  %19 = and i64 %18, 140737488355327
  %20 = inttoptr i64 %19 to ptr
  store ptr %20, ptr %8, align 8, !tbaa !59
  call void @llvm.lifetime.start.p0(i64 128, ptr %9) #7
  call void @llvm.lifetime.start.p0(i64 4, ptr %10) #7
  %21 = load ptr, ptr %5, align 8, !tbaa !4
  %22 = load i32, ptr %6, align 4, !tbaa !31
  %23 = trunc i32 %22 to i16
  %24 = load ptr, ptr %5, align 8, !tbaa !4
  %25 = load ptr, ptr %8, align 8, !tbaa !59
  %26 = call i32 @lj_ir_kgc(ptr noundef %24, ptr noundef %25, i32 noundef 4)
  %27 = trunc i32 %26 to i16
  call void @lj_ir_set_(ptr noundef %21, i16 noundef zeroext 2180, i16 noundef zeroext %23, i16 noundef zeroext %27)
  %28 = load ptr, ptr %5, align 8, !tbaa !4
  %29 = call i32 @lj_opt_fold(ptr noundef %28)
  %30 = load ptr, ptr %5, align 8, !tbaa !4
  %31 = getelementptr inbounds nuw %struct.jit_State, ptr %30, i32 0, i32 2
  %32 = load ptr, ptr %31, align 8, !tbaa !85
  %33 = getelementptr inbounds nuw %struct.CPState, ptr %9, i32 0, i32 7
  store ptr %32, ptr %33, align 8, !tbaa !112
  %34 = load ptr, ptr %5, align 8, !tbaa !4
  %35 = getelementptr inbounds nuw %struct.jit_State, ptr %34, i32 0, i32 2
  %36 = load ptr, ptr %35, align 8, !tbaa !85
  %37 = call ptr @ctype_cts(ptr noundef %36)
  %38 = getelementptr inbounds nuw %struct.CPState, ptr %9, i32 0, i32 8
  store ptr %37, ptr %38, align 8, !tbaa !115
  %39 = getelementptr inbounds nuw %struct.CPState, ptr %9, i32 0, i32 8
  %40 = load ptr, ptr %39, align 8, !tbaa !115
  %41 = getelementptr inbounds nuw %struct.CTState, ptr %40, i32 0, i32 1
  %42 = load i32, ptr %41, align 8, !tbaa !116
  store i32 %42, ptr %10, align 4, !tbaa !31
  %43 = load ptr, ptr %8, align 8, !tbaa !59
  %44 = getelementptr inbounds %struct.GCstr, ptr %43, i64 1
  %45 = getelementptr inbounds nuw %struct.CPState, ptr %9, i32 0, i32 10
  store ptr %44, ptr %45, align 8, !tbaa !117
  %46 = load ptr, ptr %8, align 8, !tbaa !59
  %47 = getelementptr inbounds %struct.GCstr, ptr %46, i64 1
  %48 = getelementptr inbounds nuw %struct.CPState, ptr %9, i32 0, i32 5
  store ptr %47, ptr %48, align 8, !tbaa !118
  %49 = getelementptr inbounds nuw %struct.CPState, ptr %9, i32 0, i32 9
  store ptr null, ptr %49, align 8, !tbaa !119
  %50 = getelementptr inbounds nuw %struct.CPState, ptr %9, i32 0, i32 14
  store i32 18, ptr %50, align 4, !tbaa !120
  %51 = call i32 @lj_cparse(ptr noundef %9)
  %52 = icmp ne i32 %51, 0
  br i1 %52, label %60, label %53

53:                                               ; preds = %15
  %54 = getelementptr inbounds nuw %struct.CPState, ptr %9, i32 0, i32 8
  %55 = load ptr, ptr %54, align 8, !tbaa !115
  %56 = getelementptr inbounds nuw %struct.CTState, ptr %55, i32 0, i32 1
  %57 = load i32, ptr %56, align 8, !tbaa !116
  %58 = load i32, ptr %10, align 4, !tbaa !31
  %59 = icmp ugt i32 %57, %58
  br i1 %59, label %60, label %62

60:                                               ; preds = %53, %15
  %61 = load ptr, ptr %5, align 8, !tbaa !4
  call void @lj_trace_err(ptr noundef %61, i32 noundef 11) #8
  unreachable

62:                                               ; preds = %53
  %63 = getelementptr inbounds nuw %struct.CPState, ptr %9, i32 0, i32 2
  %64 = getelementptr inbounds nuw %struct.CPValue, ptr %63, i32 0, i32 1
  %65 = load i32, ptr %64, align 4, !tbaa !121
  store i32 %65, ptr %4, align 4
  call void @llvm.lifetime.end.p0(i64 4, ptr %10) #7
  call void @llvm.lifetime.end.p0(i64 128, ptr %9) #7
  call void @llvm.lifetime.end.p0(i64 8, ptr %8) #7
  br label %88

66:                                               ; preds = %3
  call void @llvm.lifetime.start.p0(i64 8, ptr %11) #7
  %67 = load ptr, ptr %5, align 8, !tbaa !4
  %68 = load i32, ptr %6, align 4, !tbaa !31
  %69 = load ptr, ptr %7, align 8, !tbaa !67
  %70 = call ptr @argv2cdata(ptr noundef %67, i32 noundef %68, ptr noundef %69)
  store ptr %70, ptr %11, align 8, !tbaa !36
  %71 = load ptr, ptr %11, align 8, !tbaa !36
  %72 = getelementptr inbounds nuw %struct.GCcdata, ptr %71, i32 0, i32 3
  %73 = load i16, ptr %72, align 2, !tbaa !51
  %74 = zext i16 %73 to i32
  %75 = icmp eq i32 %74, 22
  br i1 %75, label %76, label %81

76:                                               ; preds = %66
  %77 = load ptr, ptr %5, align 8, !tbaa !4
  %78 = load ptr, ptr %11, align 8, !tbaa !36
  %79 = load i32, ptr %6, align 4, !tbaa !31
  %80 = call i32 @crec_constructor(ptr noundef %77, ptr noundef %78, i32 noundef %79)
  br label %86

81:                                               ; preds = %66
  %82 = load ptr, ptr %11, align 8, !tbaa !36
  %83 = getelementptr inbounds nuw %struct.GCcdata, ptr %82, i32 0, i32 3
  %84 = load i16, ptr %83, align 2, !tbaa !51
  %85 = zext i16 %84 to i32
  br label %86

86:                                               ; preds = %81, %76
  %87 = phi i32 [ %80, %76 ], [ %85, %81 ]
  store i32 %87, ptr %4, align 4
  call void @llvm.lifetime.end.p0(i64 8, ptr %11) #7
  br label %88

88:                                               ; preds = %86, %62
  %89 = load i32, ptr %4, align 4
  ret i32 %89
}