; Function Attrs: nounwind uwtable
define internal fastcc i32 @argv2ctype(ptr noundef %0, i32 noundef %1, ptr noundef readonly captures(none) %2) unnamed_addr #0 {
  %4 = alloca %struct.CPState, align 8
  %5 = and i32 %1, 520093696
  switch i32 %5, label %45 [
    i32 67108864, label %6
    i32 167772160, label %argv2cdata.exit
  ]

6:                                                ; preds = %3
  %7 = load i64, ptr %2, align 8, !tbaa !31
  %8 = and i64 %7, 140737488355327
  %9 = inttoptr i64 %8 to ptr
  call void @llvm.lifetime.start.p0(i64 128, ptr nonnull %4) #8
  %10 = trunc i32 %1 to i16
  %11 = tail call i32 @lj_ir_kgc(ptr noundef %0, ptr noundef %9, i32 noundef 4) #8
  %12 = trunc i32 %11 to i16
  %13 = getelementptr inbounds nuw i8, ptr %0, i64 184
  %14 = getelementptr inbounds nuw i8, ptr %0, i64 188
  store i16 2180, ptr %14, align 4, !tbaa !31
  store i16 %10, ptr %13, align 8, !tbaa !31
  %15 = getelementptr inbounds nuw i8, ptr %0, i64 186
  store i16 %12, ptr %15, align 2, !tbaa !31
  %16 = tail call i32 @lj_opt_fold(ptr noundef %0) #8
  %17 = getelementptr inbounds nuw i8, ptr %0, i64 128
  %18 = load ptr, ptr %17, align 8, !tbaa !68
  %19 = getelementptr inbounds nuw i8, ptr %4, i64 72
  store ptr %18, ptr %19, align 8, !tbaa !103
  %20 = getelementptr inbounds nuw i8, ptr %18, i64 16
  %21 = load i64, ptr %20, align 8, !tbaa !95
  %22 = inttoptr i64 %21 to ptr
  %23 = getelementptr inbounds nuw i8, ptr %22, i64 384
  %24 = load i64, ptr %23, align 8, !tbaa !96
  %25 = inttoptr i64 %24 to ptr
  %26 = getelementptr inbounds nuw i8, ptr %25, i64 16
  store ptr %18, ptr %26, align 8, !tbaa !71
  %27 = getelementptr inbounds nuw i8, ptr %4, i64 80
  store ptr %25, ptr %27, align 8, !tbaa !108
  %28 = getelementptr inbounds nuw i8, ptr %25, i64 8
  %29 = load i32, ptr %28, align 8, !tbaa !109
  %30 = getelementptr inbounds nuw i8, ptr %9, i64 24
  %31 = getelementptr inbounds nuw i8, ptr %4, i64 96
  store ptr %30, ptr %31, align 8, !tbaa !110
  %32 = getelementptr inbounds nuw i8, ptr %4, i64 32
  store ptr %30, ptr %32, align 8, !tbaa !111
  %33 = getelementptr inbounds nuw i8, ptr %4, i64 88
  store ptr null, ptr %33, align 8, !tbaa !112
  %34 = getelementptr inbounds nuw i8, ptr %4, i64 116
  store i32 18, ptr %34, align 4, !tbaa !113
  %35 = call i32 @lj_cparse(ptr noundef nonnull %4) #8
  %.not = icmp eq i32 %35, 0
  br i1 %.not, label %36, label %41

36:                                               ; preds = %6
  %37 = load ptr, ptr %27, align 8, !tbaa !108
  %38 = getelementptr inbounds nuw i8, ptr %37, i64 8
  %39 = load i32, ptr %38, align 8, !tbaa !109
  %40 = icmp ugt i32 %39, %29
  br i1 %40, label %41, label %42

41:                                               ; preds = %36, %6
  call void @lj_trace_err(ptr noundef nonnull %0, i32 noundef 11) #7
  unreachable

42:                                               ; preds = %36
  %43 = getelementptr inbounds nuw i8, ptr %4, i64 12
  %44 = load i32, ptr %43, align 4, !tbaa !114
  call void @llvm.lifetime.end.p0(i64 128, ptr nonnull %4) #8
  br label %72

45:                                               ; preds = %3
  tail call void @lj_trace_err(ptr noundef %0, i32 noundef 11) #7
  unreachable

argv2cdata.exit:                                  ; preds = %3
  %46 = load i64, ptr %2, align 8, !tbaa !31
  %47 = and i64 %46, 140737488355327
  %48 = inttoptr i64 %47 to ptr
  %49 = trunc i32 %1 to i16
  %50 = getelementptr inbounds nuw i8, ptr %0, i64 184
  %51 = getelementptr inbounds nuw i8, ptr %0, i64 188
  store i16 17682, ptr %51, align 4, !tbaa !31
  store i16 %49, ptr %50, align 8, !tbaa !31
  %52 = getelementptr inbounds nuw i8, ptr %0, i64 186
  store i16 20, ptr %52, align 2, !tbaa !31
  %53 = tail call i32 @lj_opt_fold(ptr noundef %0) #8
  %54 = trunc i32 %53 to i16
  %55 = getelementptr inbounds nuw i8, ptr %48, i64 10
  %56 = load i16, ptr %55, align 2, !tbaa !32
  %57 = zext i16 %56 to i32
  %58 = tail call i32 @lj_ir_kint(ptr noundef %0, i32 noundef %57) #8
  %59 = trunc i32 %58 to i16
  store i16 2195, ptr %51, align 4, !tbaa !31
  store i16 %54, ptr %50, align 8, !tbaa !31
  store i16 %59, ptr %52, align 2, !tbaa !31
  %60 = tail call i32 @lj_opt_fold(ptr noundef %0) #8
  %61 = load i16, ptr %55, align 2, !tbaa !32
  %62 = icmp eq i16 %61, 22
  br i1 %62, label %63, label %70

63:                                               ; preds = %argv2cdata.exit
  %64 = getelementptr i8, ptr %48, i64 16
  %.val = load i32, ptr %64, align 4, !tbaa !27
  store i16 17683, ptr %51, align 4, !tbaa !31
  store i16 %49, ptr %50, align 8, !tbaa !31
  store i16 22, ptr %52, align 2, !tbaa !31
  %65 = tail call i32 @lj_opt_fold(ptr noundef nonnull %0) #8
  %66 = trunc i32 %65 to i16
  %67 = tail call i32 @lj_ir_kint(ptr noundef nonnull %0, i32 noundef %.val) #8
  %68 = trunc i32 %67 to i16
  store i16 2195, ptr %51, align 4, !tbaa !31
  store i16 %66, ptr %50, align 8, !tbaa !31
  store i16 %68, ptr %52, align 2, !tbaa !31
  %69 = tail call i32 @lj_opt_fold(ptr noundef nonnull %0) #8
  br label %72

70:                                               ; preds = %argv2cdata.exit
  %71 = zext i16 %61 to i32
  br label %72

72:                                               ; preds = %63, %70, %42
  %.0 = phi i32 [ %44, %42 ], [ %.val, %63 ], [ %71, %70 ]
  ret i32 %.0
}